target datalayout = "e-m:e-p270:32:32-p271:32:32-p272:64:64-i64:64-i128:128-f80:128-n8:16:32:64-S128"
target triple = "x86_64-pc-linux-gnu"

%struct.RBasic = type { i64, i64 }

@.str.80 = private unnamed_addr constant [8 x i8] c"unknown\00", align 1
@cto_i.rbimpl_id = internal global i64 0, align 8

; Function Attrs: inlinehint nounwind sspstrong willreturn memory(read) uwtable
define internal i64 @rb_intern_const(ptr noundef nonnull %0) #9 {
  %2 = alloca ptr, align 8
  %3 = alloca i64, align 8
  store ptr %0, ptr %2, align 8, !tbaa !39
  call void @llvm.lifetime.start.p0(i64 8, ptr %3) #15
  %4 = load ptr, ptr %2, align 8, !tbaa !39
  %5 = call i64 @strlen(ptr noundef %4) #17
  store i64 %5, ptr %3, align 8, !tbaa !6
  %6 = load ptr, ptr %2, align 8, !tbaa !39
  %7 = load i64, ptr %3, align 8, !tbaa !6
  %8 = call i64 @rb_intern2(ptr noundef %6, i64 noundef %7)
  call void @llvm.lifetime.end.p0(i64 8, ptr %3) #15
  ret i64 %8
}

; Function Attrs: inlinehint nounwind sspstrong willreturn memory(none) uwtable
define internal i64 @RB_INT2FIX(i64 noundef %0) #4 {
  %2 = alloca i64, align 8
  %3 = alloca i64, align 8
  %4 = alloca i64, align 8
  %5 = alloca i64, align 8
  %6 = alloca i64, align 8
  %7 = alloca i64, align 8
  store i64 %0, ptr %2, align 8, !tbaa !6
  call void @llvm.lifetime.start.p0(i64 8, ptr %3) #15
  %8 = load i64, ptr %2, align 8, !tbaa !6
  store i64 %8, ptr %3, align 8, !tbaa !6
  call void @llvm.lifetime.start.p0(i64 8, ptr %4) #15
  %9 = load i64, ptr %3, align 8, !tbaa !6
  %10 = shl i64 %9, 1
  %11 = add i64 %10, 1
  store i64 %11, ptr %4, align 8, !tbaa !6
  call void @llvm.lifetime.start.p0(i64 8, ptr %5) #15
  %12 = load i64, ptr %4, align 8, !tbaa !6
  store i64 %12, ptr %5, align 8, !tbaa !6
  call void @llvm.lifetime.start.p0(i64 8, ptr %6) #15
  %13 = load i64, ptr %5, align 8, !tbaa !6
  store i64 %13, ptr %6, align 8, !tbaa !6
  call void @llvm.lifetime.start.p0(i64 8, ptr %7) #15
  %14 = load i64, ptr %6, align 8, !tbaa !6
  store i64 %14, ptr %7, align 8, !tbaa !6
  %15 = load i64, ptr %7, align 8, !tbaa !6
  call void @llvm.lifetime.end.p0(i64 8, ptr %7) #15
  call void @llvm.lifetime.end.p0(i64 8, ptr %6) #15
  call void @llvm.lifetime.end.p0(i64 8, ptr %5) #15
  call void @llvm.lifetime.end.p0(i64 8, ptr %4) #15
  call void @llvm.lifetime.end.p0(i64 8, ptr %3) #15
  ret i64 %15
}

; Function Attrs: inlinehint nounwind sspstrong uwtable
define internal i32 @RB_FIX2INT(i64 noundef %0) #3 {
  %2 = alloca i64, align 8
  %3 = alloca i64, align 8
  store i64 %0, ptr %2, align 8, !tbaa !6
  call void @llvm.lifetime.start.p0(i64 8, ptr %3) #15
  %4 = load i64, ptr %2, align 8, !tbaa !6
  %5 = call i64 @rb_fix2int(i64 noundef %4)
  store i64 %5, ptr %3, align 8, !tbaa !6
  %6 = load i64, ptr %3, align 8, !tbaa !6
  %7 = trunc i64 %6 to i32
  call void @llvm.lifetime.end.p0(i64 8, ptr %3) #15
  ret i32 %7
}

; Function Attrs: inlinehint nounwind sspstrong willreturn memory(none) uwtable
define internal zeroext i1 @RB_NIL_P(i64 noundef %0) #4 {
  %2 = alloca i64, align 8
  store i64 %0, ptr %2, align 8, !tbaa !6
  %3 = load i64, ptr %2, align 8, !tbaa !6
  %4 = icmp eq i64 %3, 4
  ret i1 %4
}

; Function Attrs: inlinehint nounwind sspstrong memory(argmem: readwrite, inaccessiblemem: readwrite) uwtable
define internal i64 @rbimpl_intern_const(ptr noundef nonnull %0, ptr noundef nonnull %1) #10 {
  %3 = alloca ptr, align 8
  %4 = alloca ptr, align 8
  store ptr %0, ptr %3, align 8, !tbaa !12
  store ptr %1, ptr %4, align 8, !tbaa !39
  br label %5

5:                                                ; preds = %10, %2
  %6 = load ptr, ptr %3, align 8, !tbaa !12
  %7 = load i64, ptr %6, align 8, !tbaa !6
  %8 = icmp ne i64 %7, 0
  %9 = xor i1 %8, true
  br i1 %9, label %10, label %14

10:                                               ; preds = %5
  %11 = load ptr, ptr %4, align 8, !tbaa !39
  %12 = call i64 @rb_intern_const(ptr noundef %11) #17
  %13 = load ptr, ptr %3, align 8, !tbaa !12
  store i64 %12, ptr %13, align 8, !tbaa !6
  br label %5, !llvm.loop !57

14:                                               ; preds = %5
  %15 = load ptr, ptr %3, align 8, !tbaa !12
  %16 = load i64, ptr %15, align 8, !tbaa !6
  ret i64 %16
}

; Function Attrs: inlinehint nounwind sspstrong willreturn memory(read) uwtable
define internal i32 @RB_BUILTIN_TYPE(i64 noundef %0) #9 {
  %2 = alloca i64, align 8
  %3 = alloca i64, align 8
  store i64 %0, ptr %2, align 8, !tbaa !6
  call void @llvm.lifetime.start.p0(i64 8, ptr %3) #15
  %4 = load i64, ptr %2, align 8, !tbaa !6
  %5 = inttoptr i64 %4 to ptr
  %6 = getelementptr inbounds nuw %struct.RBasic, ptr %5, i32 0, i32 0
  %7 = load i64, ptr %6, align 8, !tbaa !53
  %8 = and i64 %7, 31
  store i64 %8, ptr %3, align 8, !tbaa !6
  %9 = load i64, ptr %3, align 8, !tbaa !6
  %10 = trunc i64 %9 to i32
  call void @llvm.lifetime.end.p0(i64 8, ptr %3) #15
  ret i32 %10
}

; Function Attrs: nounwind sspstrong uwtable
define internal void @cto_i(i64 noundef %0, ptr noundef %1) #0 {
  %3 = alloca i64, align 8
  %4 = alloca ptr, align 8
  %5 = alloca i64, align 8
  %6 = alloca i64, align 8
  %7 = alloca i64, align 8
  %8 = alloca ptr, align 8
  %9 = alloca i64, align 8
  %10 = alloca i64, align 8
  store i64 %0, ptr %3, align 8, !tbaa !6
  store ptr %1, ptr %4, align 8, !tbaa !46
  call void @llvm.lifetime.start.p0(i64 8, ptr %5) #15
  %11 = load ptr, ptr %4, align 8, !tbaa !46
  %12 = ptrtoint ptr %11 to i64
  store i64 %12, ptr %5, align 8, !tbaa !6
  %13 = load i64, ptr %3, align 8, !tbaa !6
  %14 = call i32 @RB_BUILTIN_TYPE(i64 noundef %13) #17
  %15 = icmp eq i32 %14, 12
  br i1 %15, label %16, label %59

16:                                               ; preds = %2
  call void @llvm.lifetime.start.p0(i64 8, ptr %6) #15
  call void @llvm.lifetime.start.p0(i64 8, ptr %7) #15
  %17 = load i64, ptr %3, align 8, !tbaa !6
  %18 = inttoptr i64 %17 to ptr
  %19 = getelementptr inbounds nuw %struct.RBasic, ptr %18, i32 0, i32 1
  %20 = load i64, ptr %19, align 8, !tbaa !66
  store i64 %20, ptr %7, align 8, !tbaa !6
  %21 = load i64, ptr %7, align 8, !tbaa !6
  %22 = icmp eq i64 %21, 0
  br i1 %22, label %23, label %41

23:                                               ; preds = %16
  call void @llvm.lifetime.start.p0(i64 8, ptr %8) #15
  %24 = load i64, ptr %3, align 8, !tbaa !6
  %25 = call ptr @rb_objspace_data_type_name(i64 noundef %24)
  store ptr %25, ptr %8, align 8, !tbaa !39
  %26 = load ptr, ptr %8, align 8, !tbaa !39
  %27 = icmp eq ptr %26, null
  br i1 %27, label %28, label %29

28:                                               ; preds = %23
  store ptr @.str.80, ptr %8, align 8, !tbaa !39
  br label %29

29:                                               ; preds = %28, %23
  br i1 false, label %30, label %34

30:                                               ; preds = %29
  %31 = load ptr, ptr %8, align 8, !tbaa !39
  %32 = call i64 @rbimpl_intern_const(ptr noundef @cto_i.rbimpl_id, ptr noundef %31) #16
  store i64 %32, ptr %10, align 8, !tbaa !6
  %33 = load i64, ptr %10, align 8, !tbaa !6
  br label %37

34:                                               ; preds = %29
  %35 = load ptr, ptr %8, align 8, !tbaa !39
  %36 = call i64 @rb_intern(ptr noundef %35)
  br label %37

37:                                               ; preds = %34, %30
  %38 = phi i64 [ %33, %30 ], [ %36, %34 ]
  %39 = call i64 @rb_id2sym(i64 noundef %38)
  store i64 %39, ptr %9, align 8, !tbaa !6
  %40 = load i64, ptr %9, align 8, !tbaa !6
  store i64 %40, ptr %7, align 8, !tbaa !6
  call void @llvm.lifetime.end.p0(i64 8, ptr %8) #15
  br label %41

41:                                               ; preds = %37, %16
  %42 = load i64, ptr %5, align 8, !tbaa !6
  %43 = load i64, ptr %7, align 8, !tbaa !6
  %44 = call i64 @rb_hash_aref(i64 noundef %42, i64 noundef %43)
  store i64 %44, ptr %6, align 8, !tbaa !6
  %45 = load i64, ptr %6, align 8, !tbaa !6
  %46 = call zeroext i1 @RB_NIL_P(i64 noundef %45) #18
  br i1 %46, label %47, label %48

47:                                               ; preds = %41
  store i64 3, ptr %6, align 8, !tbaa !6
  br label %54

48:                                               ; preds = %41
  %49 = load i64, ptr %6, align 8, !tbaa !6
  %50 = call i32 @RB_FIX2INT(i64 noundef %49)
  %51 = add nsw i32 %50, 1
  %52 = sext i32 %51 to i64
  %53 = call i64 @RB_INT2FIX(i64 noundef %52) #18
  store i64 %53, ptr %6, align 8, !tbaa !6
  br label %54

54:                                               ; preds = %48, %47
  %55 = load i64, ptr %5, align 8, !tbaa !6
  %56 = load i64, ptr %7, align 8, !tbaa !6
  %57 = load i64, ptr %6, align 8, !tbaa !6
  %58 = call i64 @rb_hash_aset(i64 noundef %55, i64 noundef %56, i64 noundef %57)
  call void @llvm.lifetime.end.p0(i64 8, ptr %7) #15
  call void @llvm.lifetime.end.p0(i64 8, ptr %6) #15
  br label %59

59:                                               ; preds = %54, %2
  call void @llvm.lifetime.end.p0(i64 8, ptr %5) #15
  ret void
}