; Function Attrs: nounwind sspstrong uwtable
define internal void @cto_i(i64 noundef %0, ptr noundef %1) #0 {
  %3 = ptrtoint ptr %1 to i64
  %4 = inttoptr i64 %0 to ptr
  %5 = load i64, ptr %4, align 8, !tbaa !32
  %6 = and i64 %5, 31
  %7 = icmp eq i64 %6, 12
  br i1 %7, label %8, label %27

8:                                                ; preds = %2
  %9 = getelementptr inbounds nuw i8, ptr %4, i64 8
  %10 = load i64, ptr %9, align 8, !tbaa !46
  %11 = icmp eq i64 %10, 0
  br i1 %11, label %12, label %17

12:                                               ; preds = %8
  %13 = tail call ptr @rb_objspace_data_type_name(i64 noundef %0) #7
  %14 = icmp eq ptr %13, null
  %spec.store.select = select i1 %14, ptr @.str.80, ptr %13
  %15 = tail call i64 @rb_intern(ptr noundef nonnull %spec.store.select) #7
  %16 = tail call i64 @rb_id2sym(i64 noundef %15) #7
  br label %17

17:                                               ; preds = %12, %8
  %.014 = phi i64 [ %16, %12 ], [ %10, %8 ]
  %18 = tail call i64 @rb_hash_aref(i64 noundef %3, i64 noundef %.014) #7
  %19 = icmp eq i64 %18, 4
  br i1 %19, label %25, label %20

20:                                               ; preds = %17
  %21 = tail call i64 @rb_fix2int(i64 noundef %18) #7
  %22 = shl i64 %21, 32
  %sext = add i64 %22, 4294967296
  %23 = ashr exact i64 %sext, 31
  %24 = or disjoint i64 %23, 1
  br label %25

25:                                               ; preds = %17, %20
  %.0 = phi i64 [ %24, %20 ], [ 3, %17 ]
  %26 = tail call i64 @rb_hash_aset(i64 noundef %3, i64 noundef %.014, i64 noundef %.0) #7
  br label %27

27:                                               ; preds = %25, %2
  ret void
}